Archive member included because of file (symbol)

/usr/local/bin/toolschain/4.9.1/bin/../lib/gcc/arm-linux-gnueabihf/4.9.1/libgcc.a(_udivsi3.o)
                              arch/arm/cpu/arm1176/s3c64xx/libs3c64xx.o (__aeabi_uidiv)
/usr/local/bin/toolschain/4.9.1/bin/../lib/gcc/arm-linux-gnueabihf/4.9.1/libgcc.a(_divsi3.o)
                              common/libcommon.o (__aeabi_idiv)
/usr/local/bin/toolschain/4.9.1/bin/../lib/gcc/arm-linux-gnueabihf/4.9.1/libgcc.a(_lshrdi3.o)
                              drivers/mtd/nand/libnand.o (__aeabi_llsr)
/usr/local/bin/toolschain/4.9.1/bin/../lib/gcc/arm-linux-gnueabihf/4.9.1/libgcc.a(_ashrdi3.o)
                              drivers/mtd/nand/libnand.o (__aeabi_lasr)
/usr/local/bin/toolschain/4.9.1/bin/../lib/gcc/arm-linux-gnueabihf/4.9.1/libgcc.a(_ashldi3.o)
                              drivers/mmc/libmmc.o (__aeabi_llsl)
/usr/local/bin/toolschain/4.9.1/bin/../lib/gcc/arm-linux-gnueabihf/4.9.1/libgcc.a(_dvmd_lnx.o)
                              /usr/local/bin/toolschain/4.9.1/bin/../lib/gcc/arm-linux-gnueabihf/4.9.1/libgcc.a(_udivsi3.o) (__aeabi_idiv0)

内存配置

名称           来源             长度             属性
*default*        0x00000000         0xffffffff

Linker script and memory map

                0x00000000                . = 0x0
                0x00000000                . = ALIGN (0x4)

.text           0x57e00000    0x2cc88
 arch/arm/cpu/arm1176/start.o(.text)
 .text          0x57e00000      0x440 arch/arm/cpu/arm1176/start.o
                0x57e00000                _start
                0x57e00040                _end_vect
                0x57e00040                _TEXT_BASE
                0x57e00048                _bss_start_ofs
                0x57e0004c                _bss_end_ofs
                0x57e00050                _end_ofs
                0x57e00054                IRQ_STACK_START_IN
                0x57e000d4                relocate_code
                0x57e0018c                c_runtime_cpu_setup
 board/samsung/ok6410/libok6410.o(.text)
 .text          0x57e00440      0x2c8 board/samsung/ok6410/libok6410.o
                0x57e00444                lowlevel_init
                0x57e00638                board_init
                0x57e00684                dram_init_banksize
                0x57e006a0                dram_init
                0x57e006c0                checkboard
                0x57e006d8                board_flash_get_legacy
                0x57e006f8                board_eth_init
 *(.text)
 .text          0x57e00708       0x20 arch/arm/cpu/arm1176/libarm1176.o
                0x57e00708                cleanup_before_linux
 .text          0x57e00728      0x4e8 arch/arm/cpu/arm1176/s3c64xx/libs3c64xx.o
                0x57e00728                reset_cpu
                0x57e00748                mem_ctrl_asm_init
                0x57e008d4                get_ARMCLK
                0x57e008fc                get_FCLK
                0x57e00904                get_HCLK
                0x57e00958                get_PCLK
                0x57e009ac                get_UCLK
                0x57e009b4                print_cpuinfo
                0x57e00a3c                BootCopyMMCtoMem
                0x57e00a90                timer_init
                0x57e00b2c                get_ticks
                0x57e00b8c                get_tbclk
                0x57e00ba4                get_timer_masked
                0x57e00bb0                get_timer
                0x57e00bc4                __udelay
                0x57e00c00                arch_cpu_init
 .text          0x57e00c10      0x9c4 arch/arm/lib/libarm.o
                0x57e00c10                _main
                0x57e00c9c                __arch_cpu_init
                0x57e00cf8                coloured_LED_init
                0x57e00cf8                __coloured_LED_init
                0x57e00cfc                __red_led_on
                0x57e00cfc                red_led_on
                0x57e00d00                __red_led_off
                0x57e00d00                red_led_off
                0x57e00d04                green_led_on
                0x57e00d04                __green_led_on
                0x57e00d08                green_led_off
                0x57e00d08                __green_led_off
                0x57e00d0c                yellow_led_on
                0x57e00d0c                __yellow_led_on
                0x57e00d10                __yellow_led_off
                0x57e00d10                yellow_led_off
                0x57e00d14                blue_led_on
                0x57e00d14                __blue_led_on
                0x57e00d18                __blue_led_off
                0x57e00d18                blue_led_off
                0x57e00d1c                __dram_init_banksize
                0x57e00d38                __power_init_board
                0x57e00d38                power_init_board
                0x57e00d40                board_init_r
                0x57e00e00                hang
                0x57e00e14                board_init_f
                0x57e00fb4                arch_lmb_reserve
                0x57e00fd8                setup_board_tags
                0x57e0112c                do_bootm_linux
                0x57e01184                interrupt_init
                0x57e011a0                enable_interrupts
                0x57e011a4                disable_interrupts
                0x57e011ac                bad_mode
                0x57e011bc                show_regs
                0x57e012f8                do_undefined_instruction
                0x57e01318                do_software_interrupt
                0x57e01338                do_prefetch_abort
                0x57e01358                do_data_abort
                0x57e01378                do_not_used
                0x57e01398                do_fiq
                0x57e013b8                do_irq
                0x57e013d8                do_reset
                0x57e01408                flush_cache
                0x57e01408                __flush_cache
                0x57e0140c                __flush_dcache_all
                0x57e0140c                flush_dcache_all
                0x57e01418                enable_caches
                0x57e01418                __enable_caches
                0x57e01454                arm_init_before_mmu
                0x57e01454                __arm_init_before_mmu
                0x57e01458                set_section_dcache
                0x57e0146c                mmu_page_table_flush
                0x57e0146c                __mmu_page_table_flush
                0x57e01470                mmu_set_region_dcache_behaviour
                0x57e014c0                icache_enable
                0x57e014d8                icache_disable
                0x57e014f4                icache_status
                0x57e01504                dcache_enable
                0x57e01598                dcache_disable
                0x57e015c4                dcache_status
 .text          0x57e015d4    0x10ca8 common/libcommon.o
                0x57e015e8                do_bdinfo
                0x57e01764                do_go_exec
                0x57e0197c                do_bootd
                0x57e021b0                arch_preboot_os
                0x57e021b4                do_bootm
                0x57e02644                bootm_maybe_autostart
                0x57e02720                invalidate_icache_all
                0x57e0272c                do_icache
                0x57e027c0                do_dcache
                0x57e02908                common_diskboot
                0x57e02c98                do_bootelf_exec
                0x57e02cdc                valid_elf_image
                0x57e02d28                do_bootelf
                0x57e02e80                do_bootvx
                0x57e03138                do_ext2ls
                0x57e03150                do_ext2load
                0x57e0316c                do_fat_fsload
                0x57e063ac                do_tftpb
                0x57e06ba0                get_env_id
                0x57e06bb0                setenv
                0x57e06bfc                setenv_ulong
                0x57e06c1c                setenv_hex
                0x57e06ea8                envmatch
                0x57e06f14                getenv_f
                0x57e06fdc                getenv
                0x57e07054                getenv_ulong
                0x57e07104                source
                0x57e07204                do_source
                0x57e08708                find_cmd_tbl
                0x57e087ac                find_cmd
                0x57e087d4                cmd_usage
                0x57e08830                _do_help
                0x57e089b0                cmd_get_data_size
                0x57e08a0c                cmd_process
                0x57e08ba4                serial_printf
                0x57e08be4                fgetc
                0x57e08c08                ftstc
                0x57e08c2c                fputc
                0x57e08c4c                fputs
                0x57e08c6c                fprintf
                0x57e08cb4                getc
                0x57e08cd8                tstc
                0x57e08cfc                putc
                0x57e08d2c                puts
                0x57e08d5c                printf
                0x57e08da8                vprintf
                0x57e08de4                ctrlc
                0x57e08e34                disable_ctrlc
                0x57e08e4c                had_ctrlc
                0x57e08e5c                clear_ctrlc
                0x57e08e70                dbg
                0x57e08e7c                search_device
                0x57e08ea4                console_assign
                0x57e08fac                console_init_f
                0x57e08fbc                stdio_print_current_devices
                0x57e0906c                console_init_r
                0x57e0914c                sbrk
                0x57e091ac                mem_malloc_init
                0x57e091d0                malloc_trim
                0x57e09290                free
                0x57e094c0                malloc
                0x57e09a9c                calloc
                0x57e09b70                realloc
                0x57e0a034                memalign
                0x57e0a140                valloc
                0x57e0a14c                pvalloc
                0x57e0a164                cfree
                0x57e0a168                malloc_usable_size
                0x57e0a1a4                mallopt
                0x57e0a210                env_attr_walk
                0x57e0a324                env_attr_lookup
                0x57e0a508                find_env_callback
                0x57e0a600                env_callback_init
                0x57e0a6a0                env_get_char_spec
                0x57e0a6ac                env_get_addr
                0x57e0a6cc                env_get_char_memory
                0x57e0a6dc                env_get_char
                0x57e0a70c                getenv_yesno
                0x57e0a74c                getenv_default
                0x57e0a77c                set_default_env
                0x57e0a838                set_default_vars
                0x57e0a86c                env_import
                0x57e0a948                env_relocate
                0x57e0aa40                env_flags_parse_vartype
                0x57e0aa90                env_flags_parse_varaccess
                0x57e0ab98                env_flags_parse_varaccess_from_binflags
                0x57e0abc0                env_flags_init
                0x57e0ac70                env_flags_validate
                0x57e0af98                env_init
                0x57e0affc                writeenv
                0x57e0b0bc                saveenv
                0x57e0b200                readenv
                0x57e0b2bc                env_relocate_spec
                0x57e0b310                get_version
                0x57e0b318                jumptable_init
                0x57e0b4a8                hash_command
                0x57e0be7c                get_local_var
                0x57e0bf0c                set_local_var
                0x57e0c378                unset_local_var
                0x57e0c418                parse_string_outer
                0x57e0d308                parse_file_outer
                0x57e0d34c                u_boot_hush_start
                0x57e0d3d8                image_check_hcrc
                0x57e0d438                image_check_dcrc
                0x57e0d498                image_multi_count
                0x57e0d4b4                image_multi_getimg
                0x57e0d55c                getenv_bootm_low
                0x57e0d58c                getenv_bootm_size
                0x57e0d5e8                getenv_bootm_mapsize
                0x57e0d618                memmove_wd
                0x57e0d624                genimg_print_size
                0x57e0d654                get_table_entry_name
                0x57e0d680                genimg_get_os_name
                0x57e0d698                genimg_get_arch_name
                0x57e0d6b0                genimg_get_type_name
                0x57e0d6c8                genimg_get_comp_name
                0x57e0d6e0                image_print_contents
                0x57e0d890                get_table_entry_id
                0x57e0d8dc                genimg_get_os_id
                0x57e0d8f4                genimg_get_arch_id
                0x57e0d90c                genimg_get_type_id
                0x57e0d924                genimg_get_comp_id
                0x57e0d93c                genimg_get_format
                0x57e0d970                genimg_get_image
                0x57e0d974                genimg_has_config
                0x57e0d97c                boot_get_ramdisk
                0x57e0dbd8                boot_ramdisk_high
                0x57e0dec8                __show_boot_progress
                0x57e0dec8                show_boot_progress
                0x57e0decc                readline_into_buffer
                0x57e0e7a8                readline
                0x57e0e7c4                parse_line
                0x57e0e84c                run_command
                0x57e0e854                run_command_list
                0x57e0e8b0                main_loop
                0x57e0e9e0                do_run
                0x57e0ea54                get_ram_size
                0x57e0ebb0                srec_decode
                0x57e0ee08                stdio_get_list
                0x57e0ee14                stdio_get_by_name
                0x57e0ee70                stdio_clone
                0x57e0eea8                stdio_register
                0x57e0eee4                stdio_init
                0x57e0efe4                usb_stop
                0x57e0f040                usb_disable_asynch
                0x57e0f060                usb_submit_int_msg
                0x57e0f064                usb_control_msg
                0x57e0f2fc                usb_bulk_msg
                0x57e0f374                usb_maxpacket
                0x57e0f390                usb_clear_halt
                0x57e0f424                usb_get_configuration_no
                0x57e0f4c8                usb_set_interface
                0x57e0f578                usb_set_protocol
                0x57e0f5cc                usb_set_idle
                0x57e0f628                usb_get_report
                0x57e0f68c                usb_get_class_descriptor
                0x57e0f6f0                usb_string
                0x57e0f7f0                usb_get_dev_index
                0x57e0f81c                usb_alloc_new_device
                0x57e0f8b8                usb_free_device
                0x57e0f904                usb_new_device
                0x57e0fdc4                usb_init
                0x57e10060                usb_hub_reset
                0x57e10074                hub_port_reset
                0x57e10120                usb_hub_port_connect_change
                0x57e104f0                usb_hub_probe
                0x57e10f38                usb_stor_write
                0x57e11100                usb_stor_read
                0x57e112c8                usb_stor_get_dev
                0x57e112ec                usb_stor_info
                0x57e11358                usb_storage_probe
                0x57e1155c                usb_stor_get_info
                0x57e11824                usb_stor_scan
                0x57e11cd0                xyzModem_stream_open
                0x57e11f14                xyzModem_stream_read
                0x57e12174                xyzModem_stream_close
                0x57e121c8                xyzModem_stream_terminate
                0x57e1225c                xyzModem_error
 .text          0x57e1227c      0xe0c disk/libdisk.o
                0x57e1227c                get_dev
                0x57e122ec                dev_print
                0x57e12508                init_part
                0x57e12528                print_part
                0x57e1260c                get_partition_info
                0x57e12638                get_device
                0x57e126c4                get_device_and_partition
                0x57e12fd0                test_part_dos
                0x57e13034                print_part_dos
                0x57e13068                get_partition_info_dos
 .text          0x57e13088      0x5cc drivers/input/libinput.o
                0x57e13088                input_tstc
                0x57e130d0                input_getc
                0x57e13128                input_send_keycodes
                0x57e134e4                input_add_table
                0x57e13524                input_set_delays
                0x57e13530                input_init
                0x57e13600                input_stdio_register
 .text          0x57e13654     0x1fec drivers/mmc/libmmc.o
                0x57e1384c                __board_mmc_getcd
                0x57e1384c                board_mmc_getcd
                0x57e13854                find_mmc_device
                0x57e13d20                mmc_switch_part
                0x57e13d58                mmc_getcd
                0x57e13d84                mmc_set_clock
                0x57e146e8                mmc_register
                0x57e14770                mmc_init
                0x57e14ab4                mmc_get_dev
                0x57e14ae0                cpu_mmc_init
                0x57e14ae8                print_mmc_devices
                0x57e14b50                get_mmc_num
                0x57e14b60                mmc_initialize
                0x57e14c04                sdhci_set_ios
                0x57e14db8                sdhci_send_command
                0x57e1522c                sdhci_init
                0x57e153c0                add_sdhci
                0x57e15568                s3c_sdhci_init
                0x57e15620                board_mmc_init
 .text          0x57e15640     0x1c94 drivers/mtd/libmtd.o
                0x57e159cc                cfi_flash_bank_addr
                0x57e159d4                cfi_flash_bank_size
                0x57e159dc                flash_sector_size
                0x57e15a10                flash_write_cmd
                0x57e16190                flash_erase
                0x57e16390                flash_print_info
                0x57e165dc                write_buff
                0x57e167ac                flash_cmd_reset
                0x57e167e4                flash_get_size
                0x57e16f5c                flash_protect_default
                0x57e16f60                flash_init
                0x57e17130                jedec_flash_match
 .text          0x57e172d4     0x6644 drivers/mtd/nand/libnand.o
                0x57e172d4                nand_register
                0x57e17350                nand_init
                0x57e1862c                nand_update_bbt
                0x57e188e8                nand_scan_bbt
                0x57e18db8                nand_default_bbt
                0x57e18eb0                nand_isbad_bbt
                0x57e18f94                nand_erase_opts
                0x57e192dc                nand_write_skip_bad
                0x57e194ec                nand_read_skip_bad
                0x57e196e4                nand_calculate_ecc
                0x57e197d4                nand_correct_data
                0x57e19908                nand_read_byte
                0x57e19940                nand_write_buf
                0x57e1996c                nand_read_buf
                0x57e199d8                nand_write_buf16
                0x57e19a0c                nand_read_buf16
                0x57e1b8d4                nand_wait_ready
                0x57e1c4a8                nand_erase_nand
                0x57e1c8b8                nand_scan_ident
                0x57e1d03c                nand_scan_tail
                0x57e1d5f4                nand_scan
                0x57e1d618                nand_release
                0x57e1d848                board_nand_init
 .text          0x57e1d918      0x640 drivers/net/libnet.o
                0x57e1d9dc                cs8900_halt
                0x57e1dcdc                cs8900_get_enetaddr
                0x57e1dda8                cs8900_e2prom_read
                0x57e1de00                cs8900_e2prom_write
                0x57e1de98                cs8900_initialize
 .text          0x57e1df58        0x0 drivers/pcmcia/libpcmcia.o
 .text          0x57e1df58        0x0 drivers/rtc/librtc.o
 .text          0x57e1df58      0x4d8 drivers/serial/libserial.o
                0x57e1e040                s3c64xx_serial_initialize
                0x57e1e04c                default_serial_console
                0x57e1e098                jz_serial_initialize
                0x57e1e098                bfin_serial_initialize
                0x57e1e098                p3mx_serial_initialize
                0x57e1e098                leon2_serial_initialize
                0x57e1e098                leon3_serial_initialize
                0x57e1e098                amirix_serial_initialize
                0x57e1e098                marvell_serial_initialize
                0x57e1e098                cpci750_serial_initialize
                0x57e1e098                ns16550_serial_initialize
                0x57e1e098                asc_serial_initialize
                0x57e1e098                altera_serial_initialize
                0x57e1e098                oc_serial_initialize
                0x57e1e098                sh_serial_initialize
                0x57e1e098                bmw_serial_initialize
                0x57e1e098                mcf_serial_initialize
                0x57e1e098                lh7a40x_serial_initialize
                0x57e1e098                evb64260_serial_initialize
                0x57e1e098                lpc32xx_serial_initialize
                0x57e1e098                max3100_serial_initialize
                0x57e1e098                mpc85xx_serial_initialize
                0x57e1e098                imx_serial_initialize
                0x57e1e098                ixp_serial_initialize
                0x57e1e098                bfin_jtag_initialize
                0x57e1e098                cogent_serial_initialize
                0x57e1e098                clps7111_serial_initialize
                0x57e1e098                mpc8220_serial_initialize
                0x57e1e098                ml2_serial_initialize
                0x57e1e098                sandbox_serial_initialize
                0x57e1e098                s3c24xx_serial_initialize
                0x57e1e098                sconsole_serial_initialize
                0x57e1e098                uartlite_serial_initialize
                0x57e1e098                au1x00_serial_initialize
                0x57e1e098                ns9750_serial_initialize
                0x57e1e098                pxa_serial_initialize
                0x57e1e098                atmel_serial_initialize
                0x57e1e098                pl01x_serial_initialize
                0x57e1e098                altera_jtag_serial_initialize
                0x57e1e098                zynq_serial_initalize
                0x57e1e098                mpc512x_serial_initialize
                0x57e1e098                s5p_serial_initialize
                0x57e1e098                ks8695_serial_initialize
                0x57e1e098                sa1100_serial_initialize
                0x57e1e098                mpc8260_scc_serial_initialize
                0x57e1e098                mxc_serial_initialize
                0x57e1e098                iop480_serial_initialize
                0x57e1e098                s3c44b0_serial_initialize
                0x57e1e098                mpc8xx_serial_initialize
                0x57e1e098                mpc8260_smc_serial_initialize
                0x57e1e098                mpc5xx_serial_initialize
                0x57e1e09c                serial_register
                0x57e1e0b4                serial_stdio_init
                0x57e1e13c                serial_assign
                0x57e1e184                serial_initialize
                0x57e1e25c                serial_reinit_all
                0x57e1e288                serial_init
                0x57e1e29c                serial_setbrg
                0x57e1e3a0                serial_getc
                0x57e1e3b4                serial_tstc
                0x57e1e3c8                serial_putc
                0x57e1e3e4                serial_puts
                0x57e1e400                default_serial_puts
 .text          0x57e1e430     0x17f0 drivers/usb/host/libusb_host.o
                0x57e1e7f0                sohci_submit_job
                0x57e1edac                rh_check_port_status
                0x57e1edfc                submit_common_msg
                0x57e1f46c                submit_bulk_msg
                0x57e1f488                submit_control_msg
                0x57e1f9f0                submit_int_msg
                0x57e1fa10                usb_lowlevel_init
                0x57e1fba0                usb_lowlevel_stop
                0x57e1fbd0                usb_cpu_init
                0x57e1fbec                usb_cpu_stop
                0x57e1fc08                usb_cpu_init_fail
 .text          0x57e1fc20     0x17f8 fs/ext4/libext4fs.o
                0x57e1fc20                get_fs
                0x57e1fc2c                ext4fs_free_node
                0x57e1fc4c                ext4fs_read_file
                0x57e1feb0                ext4fs_ls
                0x57e1ff28                ext4fs_read
                0x57e1ff68                ext4fs_probe
                0x57e1ff98                ext4_read_file
                0x57e1fffc                ext4fs_read_inode
                0x57e2010c                read_allocated_block
                0x57e20a08                ext4fs_close
                0x57e20ae4                ext4fs_iterate_dir
                0x57e20fe4                ext4fs_find_file
                0x57e2105c                ext4fs_open
                0x57e210ec                ext4fs_mount
                0x57e211c8                ext4fs_set_blk_dev
                0x57e21218                ext4fs_devread
 .text          0x57e21418     0x196c fs/fat/libfat.o
                0x57e21c18                fat_set_blk_dev
                0x57e21ce4                fat_register_device
                0x57e21d6c                do_fat_read_at
                0x57e2283c                do_fat_read
                0x57e2285c                file_fat_detectfs
                0x57e229a4                file_fat_ls
                0x57e229b4                file_fat_read_at
                0x57e229fc                file_fat_read
                0x57e22a0c                fat_read_file
                0x57e22a48                fat_close
                0x57e22a4c                file_getfsname
                0x57e22a60                file_cd
                0x57e22c20                file_detectfs
                0x57e22c5c                file_ls
                0x57e22cec                file_read
 .text          0x57e22d84      0x40c fs/libfs.o
                0x57e22e0c                fs_set_blk_dev
                0x57e22ea8                fs_ls
                0x57e22ee4                fs_read
                0x57e22f68                do_load
                0x57e23128                do_ls
 .text          0x57e23190     0x33f0 lib/libgeneric.o
                0x57e23190                cyg_crc16
                0x57e231d8                crc32_no_comp
                0x57e232b0                crc32
                0x57e232c4                crc32_wd
                0x57e232c8                crc32_wd_buf
                0x57e232fc                crc7
                0x57e23320                display_options
                0x57e23340                print_size
                0x57e23470                print_buffer
                0x57e235e0                __div64_32
                0x57e236b0                gzalloc
                0x57e236c0                gzfree
                0x57e236c8                zunzip
                0x57e237dc                gunzip
                0x57e23948                hcreate_r
                0x57e239f8                hdestroy_r
                0x57e23a70                hstrstr_r
                0x57e23b1c                hmatch_r
                0x57e23bbc                hsearch_r
                0x57e240b4                hdelete_r
                0x57e24190                hexport_r
                0x57e24448                himport_r
                0x57e24788                hwalk_r
                0x57e247e0                ldiv
                0x57e24830                skip_spaces
                0x57e24858                strim
                0x57e24a5c                lmb_dump_all
                0x57e24a60                lmb_init
                0x57e24a88                lmb_add
                0x57e24a8c                lmb_free
                0x57e24b90                lmb_reserve
                0x57e24b98                lmb_overlaps_region
                0x57e24bf0                __lmb_alloc_base
                0x57e24cf8                lmb_alloc_base
                0x57e24d2c                lmb_alloc
                0x57e24d34                lmb_is_reserved
                0x57e24d90                board_lmb_reserve
                0x57e24d90                __board_lmb_reserve
                0x57e24d94                __arch_lmb_reserve
                0x57e24d98                string_to_ip
                0x57e24e14                qsort
                0x57e24ef0                strcmp_compar
                0x57e24efc                strncasecmp
                0x57e24f98                strcasecmp
                0x57e24fa0                strcpy
                0x57e24fb8                strncpy
                0x57e24fdc                strcat
                0x57e2500c                strncat
                0x57e25060                strcmp
                0x57e2508c                strncmp
                0x57e250cc                strchr
                0x57e250f8                strlen
                0x57e25118                strrchr
                0x57e25154                strnlen
                0x57e25180                strdup
                0x57e251c0                strspn
                0x57e251fc                strpbrk
                0x57e25238                strtok
                0x57e252c0                strsep
                0x57e252f8                strswab
                0x57e25340                memset
                0x57e2539c                bcopy
                0x57e253c0                memcpy
                0x57e2542c                memmove
                0x57e25474                memcmp
                0x57e254a4                memscan
                0x57e254d0                strstr
                0x57e2553c                memchr
                0x57e2556c                strmhz
                0x57e255d0                udelay
                0x57e25600                mdelay
                0x57e2617c                simple_strtoul
                0x57e26234                strict_strtoul
                0x57e262ac                simple_strtol
                0x57e262d4                ustrtoul
                0x57e26344                simple_strtoull
                0x57e26420                ustrtoull
                0x57e264a8                vsprintf
                0x57e264ac                sprintf
                0x57e264d4                panic
                0x57e26518                __assert_fail
                0x57e2652c                simple_itoa
 .text          0x57e26580     0x2550 lib/zlib/libz.o
                0x57e26580                zcalloc
                0x57e26588                zcfree
                0x57e26590                inflate_fast
                0x57e26b20                inflate_table
                0x57e27070                inflateReset
                0x57e270e8                inflateInit2_
                0x57e271f0                inflateInit_
                0x57e27200                inflateEnd
                0x57e27268                adler32
                0x57e275b0                inflate
 .text          0x57e28ad0     0x3c10 net/libnet.o
                0x57e28ad0                ArpInit
                0x57e28afc                arp_raw_request
                0x57e28bc0                ArpRequest
                0x57e28c3c                ArpTimeoutCheck
                0x57e28cb0                ArpReceive
                0x57e29248                BootpRequest
                0x57e294a4                cpu_eth_init
                0x57e29508                eth_parse_enetaddr
                0x57e29564                eth_getenv_enetaddr
                0x57e295c0                eth_setenv_enetaddr
                0x57e295f4                eth_getenv_enetaddr_by_index
                0x57e29640                eth_get_dev_by_name
                0x57e296c4                eth_get_dev_by_index
                0x57e29704                eth_get_dev_index
                0x57e29720                eth_write_hwaddr
                0x57e298f8                eth_register
                0x57e29964                eth_unregister
                0x57e299f4                eth_initialize
                0x57e29bb0                eth_halt
                0x57e29be0                eth_send
                0x57e29c10                eth_rx
                0x57e29c34                eth_try_another
                0x57e29cb0                eth_init
                0x57e29d78                eth_set_current
                0x57e29e0c                eth_get_name
                0x57e29e68                net_auto_load
                0x57e29ecc                NetStartAgain
                0x57e29ff4                net_get_udp_handler
                0x57e2a004                net_set_udp_handler
                0x57e2a024                net_get_arp_handler
                0x57e2a034                net_set_arp_handler
                0x57e2a054                NetSetTimeout
                0x57e2a0a4                NetCksum
                0x57e2a0e0                NetCksumOk
                0x57e2a104                NetReceive
                0x57e2a3cc                NetEthHdrSize
                0x57e2a418                NetSetEther
                0x57e2a4cc                net_update_ether
                0x57e2a550                net_set_ip_header
                0x57e2a5d8                net_set_udp_header
                0x57e2a684                NetSendUDPPacket
                0x57e2a788                copy_filename
                0x57e2a7f8                random_port
                0x57e2a814                ip_to_string
                0x57e2a86c                VLAN_to_string
                0x57e2a8c4                string_to_VLAN
                0x57e2a91c                getenv_VLAN
                0x57e2a9ec                net_init
                0x57e2aa5c                NetLoop
                0x57e2ba64                NfsStart
                0x57e2bca0                ping_start
                0x57e2bdc4                ping_receive
                0x57e2c3f8                TftpStart
 .text          0x57e2c6e0       0x24 /home/ws/uboot/u-boot-2013.04-rc1/build/arch/arm/lib/eabi_compat.o
                0x57e2c6e0                raise
                0x57e2c6fc                __aeabi_unwind_cpp_pr0
                0x57e2c700                __aeabi_unwind_cpp_pr1
 *fill*         0x57e2c704        0x4 
 .text          0x57e2c708      0x278 /usr/local/bin/toolschain/4.9.1/bin/../lib/gcc/arm-linux-gnueabihf/4.9.1/libgcc.a(_udivsi3.o)
                0x57e2c708                __udivsi3
                0x57e2c708                __aeabi_uidiv
                0x57e2c964                __aeabi_uidivmod
 .text          0x57e2c980      0x2b0 /usr/local/bin/toolschain/4.9.1/bin/../lib/gcc/arm-linux-gnueabihf/4.9.1/libgcc.a(_divsi3.o)
                0x57e2c980                __aeabi_idiv
                0x57e2c980                __divsi3
                0x57e2cc14                __aeabi_idivmod
 .text          0x57e2cc30       0x18 /usr/local/bin/toolschain/4.9.1/bin/../lib/gcc/arm-linux-gnueabihf/4.9.1/libgcc.a(_lshrdi3.o)
                0x57e2cc30                __aeabi_llsr
                0x57e2cc30                __lshrdi3
 .text          0x57e2cc48       0x1c /usr/local/bin/toolschain/4.9.1/bin/../lib/gcc/arm-linux-gnueabihf/4.9.1/libgcc.a(_ashrdi3.o)
                0x57e2cc48                __ashrdi3
                0x57e2cc48                __aeabi_lasr
 .text          0x57e2cc64       0x18 /usr/local/bin/toolschain/4.9.1/bin/../lib/gcc/arm-linux-gnueabihf/4.9.1/libgcc.a(_ashldi3.o)
                0x57e2cc64                __ashldi3
                0x57e2cc64                __aeabi_llsl
 .text          0x57e2cc7c        0xc /usr/local/bin/toolschain/4.9.1/bin/../lib/gcc/arm-linux-gnueabihf/4.9.1/libgcc.a(_dvmd_lnx.o)
                0x57e2cc7c                __aeabi_ldiv0
                0x57e2cc7c                __aeabi_idiv0

.glue_7         0x57e2cc88        0x0
 .glue_7        0x00000000        0x0 linker stubs

.glue_7t        0x57e2cc88        0x0
 .glue_7t       0x00000000        0x0 linker stubs

.vfp11_veneer   0x57e2cc88        0x0
 .vfp11_veneer  0x00000000        0x0 linker stubs

.v4_bx          0x57e2cc88        0x0
 .v4_bx         0x00000000        0x0 linker stubs

.iplt           0x57e2cc88        0x0
 .iplt          0x00000000        0x0 arch/arm/cpu/arm1176/start.o
                0x57e2cc88                . = ALIGN (0x4)

.rodata         0x57e2cc88     0xa50b
 *(SORT(.rodata*))
 .rodata        0x57e2cc88       0x80 arch/arm/lib/libarm.o
 .rodata        0x57e2cd08      0x4b8 common/libcommon.o
                0x57e2cde3                version_string
                0x57e2ce33                default_environment
 .rodata        0x57e2d1c0       0x18 disk/libdisk.o
 .rodata        0x57e2d1d8       0x94 drivers/input/libinput.o
 .rodata        0x57e2d26c       0x74 drivers/mmc/libmmc.o
 .rodata        0x57e2d2e0      0x108 drivers/mtd/libmtd.o
 .rodata        0x57e2d3e8      0x890 drivers/mtd/nand/libnand.o
                0x57e2d404                nand_manuf_ids
                0x57e2d454                nand_flash_ids
 .rodata        0x57e2dc78       0x40 drivers/serial/libserial.o
 .rodata        0x57e2dcb8       0x80 drivers/usb/host/libusb_host.o
 .rodata        0x57e2dd38       0x18 fs/fat/libfat.o
 .rodata        0x57e2dd50      0x827 lib/libgeneric.o
                0x57e2e350                crc7_syndrome_table
                0x57e2e450                _ctype
 *fill*         0x57e2e577        0x1 
 .rodata        0x57e2e578      0x9cc lib/zlib/libz.o
                0x57e2ef1c                z_errmsg
 .rodata        0x57e2ef44        0xf fs/ext4/libext4fs.o
 .rodata        0x57e2ef53       0x22 net/libnet.o
 .rodata.str1.1
                0x57e2ef75       0x11 board/samsung/ok6410/libok6410.o
 .rodata.str1.1
                0x57e2ef86       0x6d arch/arm/cpu/arm1176/s3c64xx/libs3c64xx.o
 .rodata.str1.1
                0x57e2eff3      0x388 arch/arm/lib/libarm.o
                                0x3a5 (size before relaxing)
 .rodata.str1.1
                0x57e2f37b     0x4d14 common/libcommon.o
                               0x51ad (size before relaxing)
 .rodata.str1.1
                0x57e3408f      0x3f3 disk/libdisk.o
                                0x436 (size before relaxing)
 .rodata.str1.1
                0x57e34482       0x10 drivers/input/libinput.o
                                 0x16 (size before relaxing)
 .rodata.str1.1
                0x57e34492      0x2fc drivers/mmc/libmmc.o
                                0x30b (size before relaxing)
 .rodata.str1.1
                0x57e3478e      0x3b7 drivers/mtd/libmtd.o
                                0x3e7 (size before relaxing)
 .rodata.str1.1
                0x57e34b45      0xd23 drivers/mtd/nand/libnand.o
                                0xd5d (size before relaxing)
 .rodata.str1.1
                0x57e35868       0x48 drivers/net/libnet.o
 .rodata.str1.1
                0x57e358b0       0x57 drivers/serial/libserial.o
                                 0x92 (size before relaxing)
 .rodata.str1.1
                0x57e35907      0x7dd drivers/usb/host/libusb_host.o
 .rodata.str1.1
                0x57e360e4      0x39a fs/ext4/libext4fs.o
 .rodata.str1.1
                0x57e3647e      0x1e1 fs/fat/libfat.o
                                0x214 (size before relaxing)
 .rodata.str1.1
                0x57e3665f       0x5b fs/libfs.o
                                 0x9d (size before relaxing)
 .rodata.str1.1
                0x57e366ba      0x1de lib/libgeneric.o
                                0x1f0 (size before relaxing)
 .rodata.str1.1
                0x57e36898      0x21c lib/zlib/libz.o
                                0x21d (size before relaxing)
 .rodata.str1.1
                0x57e36ab4      0x6c4 net/libnet.o
                                0x864 (size before relaxing)
 .rodata.str1.1
                0x57e37178       0x1b /home/ws/uboot/u-boot-2013.04-rc1/build/arch/arm/lib/eabi_compat.o

.hash           0x57e37194       0x50
 .hash          0x57e37194       0x50 arch/arm/cpu/arm1176/start.o
                0x57e371e4                . = ALIGN (0x4)

.data           0x57e371e4     0x1d20
 *(.data)
 .data          0x57e371e4        0x0 arch/arm/cpu/arm1176/start.o
 .data          0x57e371e4        0x0 board/samsung/ok6410/libok6410.o
 .data          0x57e371e4        0x0 arch/arm/cpu/arm1176/libarm1176.o
 .data          0x57e371e4        0x0 arch/arm/cpu/arm1176/s3c64xx/libs3c64xx.o
 .data          0x57e371e4       0x30 arch/arm/lib/libarm.o
                0x57e371e4                init_sequence
 .data          0x57e37214      0xf44 common/libcommon.o
                0x57e380a8                env_htab
                0x57e380b8                env_ptr
                0x57e380bc                env_name_spec
                0x57e38144                load_addr
                0x57e3814c                stdio_names
 .data          0x57e38158        0x0 disk/libdisk.o
 .data          0x57e38158       0xc6 drivers/input/libinput.o
 *fill*         0x57e3821e        0x2 
 .data          0x57e38220        0x4 drivers/mmc/libmmc.o
 .data          0x57e38224        0x0 drivers/mtd/libmtd.o
 .data          0x57e38224      0x9f0 drivers/mtd/nand/libnand.o
                0x57e38224                nand_curr_device
 .data          0x57e38c14        0x0 drivers/net/libnet.o
 .data          0x57e38c14        0x0 drivers/pcmcia/libpcmcia.o
 .data          0x57e38c14        0x0 drivers/rtc/librtc.o
 .data          0x57e38c14       0x30 drivers/serial/libserial.o
 .data          0x57e38c44       0x4b drivers/usb/host/libusb_host.o
 *fill*         0x57e38c8f        0x1 
 .data          0x57e38c90        0xc fs/ext4/libext4fs.o
                0x57e38c90                ext4fs_indir1_blkno
                0x57e38c94                ext4fs_indir2_blkno
                0x57e38c98                ext4fs_indir3_blkno
 .data          0x57e38c9c      0x204 fs/fat/libfat.o
                0x57e38c9c                file_cwd
 .data          0x57e38ea0       0x3c fs/libfs.o
 .data          0x57e38edc        0x0 lib/libgeneric.o
 .data          0x57e38edc        0x0 lib/zlib/libz.o
 .data          0x57e38edc       0x28 net/libnet.o
                0x57e38edc                NetOurVLAN
                0x57e38ede                NetOurNativeVLAN
                0x57e38ee0                NetBcastAddr
                0x57e38efc                TftpRRQTimeoutCountMax
                0x57e38f00                TftpRRQTimeoutMSecs
 .data          0x57e38f04        0x0 /home/ws/uboot/u-boot-2013.04-rc1/build/arch/arm/lib/eabi_compat.o
 .data          0x57e38f04        0x0 /usr/local/bin/toolschain/4.9.1/bin/../lib/gcc/arm-linux-gnueabihf/4.9.1/libgcc.a(_udivsi3.o)
 .data          0x57e38f04        0x0 /usr/local/bin/toolschain/4.9.1/bin/../lib/gcc/arm-linux-gnueabihf/4.9.1/libgcc.a(_divsi3.o)
 .data          0x57e38f04        0x0 /usr/local/bin/toolschain/4.9.1/bin/../lib/gcc/arm-linux-gnueabihf/4.9.1/libgcc.a(_lshrdi3.o)
 .data          0x57e38f04        0x0 /usr/local/bin/toolschain/4.9.1/bin/../lib/gcc/arm-linux-gnueabihf/4.9.1/libgcc.a(_ashrdi3.o)
 .data          0x57e38f04        0x0 /usr/local/bin/toolschain/4.9.1/bin/../lib/gcc/arm-linux-gnueabihf/4.9.1/libgcc.a(_ashldi3.o)
 .data          0x57e38f04        0x0 /usr/local/bin/toolschain/4.9.1/bin/../lib/gcc/arm-linux-gnueabihf/4.9.1/libgcc.a(_dvmd_lnx.o)

.got.plt        0x57e38f04        0xc
 .got.plt       0x57e38f04        0xc arch/arm/cpu/arm1176/start.o
                0x57e38f04                _GLOBAL_OFFSET_TABLE_

.igot.plt       0x57e38f10        0x0
 .igot.plt      0x00000000        0x0 arch/arm/cpu/arm1176/start.o
                0x57e38f10                . = ALIGN (0x4)

.got            0x57e38f10        0x0
 *(.got)
 .got           0x00000000        0x0 arch/arm/cpu/arm1176/start.o
                0x57e38f10                . = ALIGN (0x4)

.u_boot_list    0x57e38f10      0x630
                0x57e38f10                _u_boot_list__start = .
                0x57e38f10                _u_boot_list_cmd__start = .
 *(SORT(.u_boot_list.cmd.*))
 .u_boot_list.cmd.base
                0x57e38f10       0x18 common/libcommon.o
                0x57e38f10                _u_boot_list_cmd_base
 .u_boot_list.cmd.bdinfo
                0x57e38f28       0x18 common/libcommon.o
                0x57e38f28                _u_boot_list_cmd_bdinfo
 .u_boot_list.cmd.boot
                0x57e38f40       0x18 common/libcommon.o
                0x57e38f40                _u_boot_list_cmd_boot
 .u_boot_list.cmd.bootd
                0x57e38f58       0x18 common/libcommon.o
                0x57e38f58                _u_boot_list_cmd_bootd
 .u_boot_list.cmd.bootelf
                0x57e38f70       0x18 common/libcommon.o
                0x57e38f70                _u_boot_list_cmd_bootelf
 .u_boot_list.cmd.bootm
                0x57e38f88       0x18 common/libcommon.o
                0x57e38f88                _u_boot_list_cmd_bootm
 .u_boot_list.cmd.bootp
                0x57e38fa0       0x18 common/libcommon.o
                0x57e38fa0                _u_boot_list_cmd_bootp
 .u_boot_list.cmd.bootvx
                0x57e38fb8       0x18 common/libcommon.o
                0x57e38fb8                _u_boot_list_cmd_bootvx
 .u_boot_list.cmd.cmp
                0x57e38fd0       0x18 common/libcommon.o
                0x57e38fd0                _u_boot_list_cmd_cmp
 .u_boot_list.cmd.coninfo
                0x57e38fe8       0x18 common/libcommon.o
                0x57e38fe8                _u_boot_list_cmd_coninfo
 .u_boot_list.cmd.cp
                0x57e39000       0x18 common/libcommon.o
                0x57e39000                _u_boot_list_cmd_cp
 .u_boot_list.cmd.crc32
                0x57e39018       0x18 common/libcommon.o
                0x57e39018                _u_boot_list_cmd_crc32
 .u_boot_list.cmd.dcache
                0x57e39030       0x18 common/libcommon.o
                0x57e39030                _u_boot_list_cmd_dcache
 .u_boot_list.cmd.echo
                0x57e39048       0x18 common/libcommon.o
                0x57e39048                _u_boot_list_cmd_echo
 .u_boot_list.cmd.editenv
                0x57e39060       0x18 common/libcommon.o
                0x57e39060                _u_boot_list_cmd_editenv
 .u_boot_list.cmd.env
                0x57e39078       0x18 common/libcommon.o
                0x57e39078                _u_boot_list_cmd_env
 .u_boot_list.cmd.erase
                0x57e39090       0x18 common/libcommon.o
                0x57e39090                _u_boot_list_cmd_erase
 .u_boot_list.cmd.exit
                0x57e390a8       0x18 common/libcommon.o
                0x57e390a8                _u_boot_list_cmd_exit
 .u_boot_list.cmd.ext2load
                0x57e390c0       0x18 common/libcommon.o
                0x57e390c0                _u_boot_list_cmd_ext2load
 .u_boot_list.cmd.ext2ls
                0x57e390d8       0x18 common/libcommon.o
                0x57e390d8                _u_boot_list_cmd_ext2ls
 .u_boot_list.cmd.false
                0x57e390f0       0x18 common/libcommon.o
                0x57e390f0                _u_boot_list_cmd_false
 .u_boot_list.cmd.fatinfo
                0x57e39108       0x18 common/libcommon.o
                0x57e39108                _u_boot_list_cmd_fatinfo
 .u_boot_list.cmd.fatload
                0x57e39120       0x18 common/libcommon.o
                0x57e39120                _u_boot_list_cmd_fatload
 .u_boot_list.cmd.fatls
                0x57e39138       0x18 common/libcommon.o
                0x57e39138                _u_boot_list_cmd_fatls
 .u_boot_list.cmd.flinfo
                0x57e39150       0x18 common/libcommon.o
                0x57e39150                _u_boot_list_cmd_flinfo
 .u_boot_list.cmd.go
                0x57e39168       0x18 common/libcommon.o
                0x57e39168                _u_boot_list_cmd_go
 .u_boot_list.cmd.help
                0x57e39180       0x18 common/libcommon.o
                0x57e39180                _u_boot_list_cmd_help
 .u_boot_list.cmd.icache
                0x57e39198       0x18 common/libcommon.o
                0x57e39198                _u_boot_list_cmd_icache
 .u_boot_list.cmd.iminfo
                0x57e391b0       0x18 common/libcommon.o
                0x57e391b0                _u_boot_list_cmd_iminfo
 .u_boot_list.cmd.imls
                0x57e391c8       0x18 common/libcommon.o
                0x57e391c8                _u_boot_list_cmd_imls
 .u_boot_list.cmd.imxtract
                0x57e391e0       0x18 common/libcommon.o
                0x57e391e0                _u_boot_list_cmd_imxtract
 .u_boot_list.cmd.itest
                0x57e391f8       0x18 common/libcommon.o
                0x57e391f8                _u_boot_list_cmd_itest
 .u_boot_list.cmd.loadb
                0x57e39210       0x18 common/libcommon.o
                0x57e39210                _u_boot_list_cmd_loadb
 .u_boot_list.cmd.loads
                0x57e39228       0x18 common/libcommon.o
                0x57e39228                _u_boot_list_cmd_loads
 .u_boot_list.cmd.loady
                0x57e39240       0x18 common/libcommon.o
                0x57e39240                _u_boot_list_cmd_loady
 .u_boot_list.cmd.loop
                0x57e39258       0x18 common/libcommon.o
                0x57e39258                _u_boot_list_cmd_loop
 .u_boot_list.cmd.md
                0x57e39270       0x18 common/libcommon.o
                0x57e39270                _u_boot_list_cmd_md
 .u_boot_list.cmd.mm
                0x57e39288       0x18 common/libcommon.o
                0x57e39288                _u_boot_list_cmd_mm
 .u_boot_list.cmd.mmc
                0x57e392a0       0x18 common/libcommon.o
                0x57e392a0                _u_boot_list_cmd_mmc
 .u_boot_list.cmd.mmcinfo
                0x57e392b8       0x18 common/libcommon.o
                0x57e392b8                _u_boot_list_cmd_mmcinfo
 .u_boot_list.cmd.mtest
                0x57e392d0       0x18 common/libcommon.o
                0x57e392d0                _u_boot_list_cmd_mtest
 .u_boot_list.cmd.mw
                0x57e392e8       0x18 common/libcommon.o
                0x57e392e8                _u_boot_list_cmd_mw
 .u_boot_list.cmd.nand
                0x57e39300       0x18 common/libcommon.o
                0x57e39300                _u_boot_list_cmd_nand
 .u_boot_list.cmd.nboot
                0x57e39318       0x18 common/libcommon.o
                0x57e39318                _u_boot_list_cmd_nboot
 .u_boot_list.cmd.nfs
                0x57e39330       0x18 common/libcommon.o
                0x57e39330                _u_boot_list_cmd_nfs
 .u_boot_list.cmd.nm
                0x57e39348       0x18 common/libcommon.o
                0x57e39348                _u_boot_list_cmd_nm
 .u_boot_list.cmd.ping
                0x57e39360       0x18 common/libcommon.o
                0x57e39360                _u_boot_list_cmd_ping
 .u_boot_list.cmd.printenv
                0x57e39378       0x18 common/libcommon.o
                0x57e39378                _u_boot_list_cmd_printenv
 .u_boot_list.cmd.protect
                0x57e39390       0x18 common/libcommon.o
                0x57e39390                _u_boot_list_cmd_protect
 .u_boot_list.cmd.question_mark
                0x57e393a8       0x18 common/libcommon.o
                0x57e393a8                _u_boot_list_cmd_question_mark
 .u_boot_list.cmd.reginfo
                0x57e393c0       0x18 common/libcommon.o
                0x57e393c0                _u_boot_list_cmd_reginfo
 .u_boot_list.cmd.reset
                0x57e393d8       0x18 common/libcommon.o
                0x57e393d8                _u_boot_list_cmd_reset
 .u_boot_list.cmd.run
                0x57e393f0       0x18 common/libcommon.o
                0x57e393f0                _u_boot_list_cmd_run
 .u_boot_list.cmd.saveenv
                0x57e39408       0x18 common/libcommon.o
                0x57e39408                _u_boot_list_cmd_saveenv
 .u_boot_list.cmd.setenv
                0x57e39420       0x18 common/libcommon.o
                0x57e39420                _u_boot_list_cmd_setenv
 .u_boot_list.cmd.showvar
                0x57e39438       0x18 common/libcommon.o
                0x57e39438                _u_boot_list_cmd_showvar
 .u_boot_list.cmd.sleep
                0x57e39450       0x18 common/libcommon.o
                0x57e39450                _u_boot_list_cmd_sleep
 .u_boot_list.cmd.source
                0x57e39468       0x18 common/libcommon.o
                0x57e39468                _u_boot_list_cmd_source
 .u_boot_list.cmd.test
                0x57e39480       0x18 common/libcommon.o
                0x57e39480                _u_boot_list_cmd_test
 .u_boot_list.cmd.tftpboot
                0x57e39498       0x18 common/libcommon.o
                0x57e39498                _u_boot_list_cmd_tftpboot
 .u_boot_list.cmd.true
                0x57e394b0       0x18 common/libcommon.o
                0x57e394b0                _u_boot_list_cmd_true
 .u_boot_list.cmd.usb
                0x57e394c8       0x18 common/libcommon.o
                0x57e394c8                _u_boot_list_cmd_usb
 .u_boot_list.cmd.usbboot
                0x57e394e0       0x18 common/libcommon.o
                0x57e394e0                _u_boot_list_cmd_usbboot
 .u_boot_list.cmd.version
                0x57e394f8       0x18 common/libcommon.o
                0x57e394f8                _u_boot_list_cmd_version
                0x57e39510                _u_boot_list_cmd__end = .
                0x57e39510                _u_boot_list_env_clbk__start = .
 *(SORT(.u_boot_list.env_clbk.*))
 .u_boot_list.env_clbk.baudrate
                0x57e39510        0x8 drivers/serial/libserial.o
                0x57e39510                _u_boot_list_env_clbk_baudrate
 .u_boot_list.env_clbk.bootfile
                0x57e39518        0x8 net/libnet.o
                0x57e39518                _u_boot_list_env_clbk_bootfile
 .u_boot_list.env_clbk.callbacks
                0x57e39520        0x8 common/libcommon.o
                0x57e39520                _u_boot_list_env_clbk_callbacks
 .u_boot_list.env_clbk.console
                0x57e39528        0x8 common/libcommon.o
                0x57e39528                _u_boot_list_env_clbk_console
 .u_boot_list.env_clbk.flags
                0x57e39530        0x8 common/libcommon.o
                0x57e39530                _u_boot_list_env_clbk_flags
 .u_boot_list.env_clbk.loadaddr
                0x57e39538        0x8 common/libcommon.o
                0x57e39538                _u_boot_list_env_clbk_loadaddr
                0x57e39540                _u_boot_list_env_clbk__end = .
 *(SORT(.u_boot_list.*))
                0x57e39540                _u_boot_list__end = .
                0x57e39540                . = ALIGN (0x4)

.mmudata
 *(.mmudata)
                0x57e39540                . = ALIGN (0x4)

.rel.dyn        0x57e39540     0x5d28
                0x57e39540                __rel_dyn_start = .
 *(.rel*)
 .rel.got       0x00000000        0x0 arch/arm/cpu/arm1176/start.o
 .rel.plt       0x00000000        0x0 arch/arm/cpu/arm1176/start.o
 .rel.iplt      0x00000000        0x0 arch/arm/cpu/arm1176/start.o
 .rel.text      0x57e39540     0x40a8 arch/arm/cpu/arm1176/start.o
 .rel.rodata    0x57e3d5e8      0x8d8 arch/arm/cpu/arm1176/start.o
 .rel.data      0x57e3dec0      0xb58 arch/arm/cpu/arm1176/start.o
 .rel.u_boot_list.cmd.bdinfo
                0x57e3ea18       0x20 arch/arm/cpu/arm1176/start.o
 .rel.u_boot_list.cmd.reset
                0x57e3ea38       0x20 arch/arm/cpu/arm1176/start.o
 .rel.u_boot_list.cmd.go
                0x57e3ea58       0x20 arch/arm/cpu/arm1176/start.o
 .rel.u_boot_list.cmd.imls
                0x57e3ea78       0x20 arch/arm/cpu/arm1176/start.o
 .rel.u_boot_list.cmd.bootd
                0x57e3ea98       0x20 arch/arm/cpu/arm1176/start.o
 .rel.u_boot_list.cmd.iminfo
                0x57e3eab8       0x20 arch/arm/cpu/arm1176/start.o
 .rel.u_boot_list.cmd.bootm
                0x57e3ead8       0x20 arch/arm/cpu/arm1176/start.o
 .rel.u_boot_list.cmd.boot
                0x57e3eaf8       0x20 arch/arm/cpu/arm1176/start.o
 .rel.u_boot_list.cmd.dcache
                0x57e3eb18       0x20 arch/arm/cpu/arm1176/start.o
 .rel.u_boot_list.cmd.icache
                0x57e3eb38       0x20 arch/arm/cpu/arm1176/start.o
 .rel.u_boot_list.cmd.coninfo
                0x57e3eb58       0x20 arch/arm/cpu/arm1176/start.o
 .rel.u_boot_list.cmd.echo
                0x57e3eb78       0x20 arch/arm/cpu/arm1176/start.o
 .rel.u_boot_list.cmd.bootelf
                0x57e3eb98       0x20 arch/arm/cpu/arm1176/start.o
 .rel.u_boot_list.cmd.bootvx
                0x57e3ebb8       0x20 arch/arm/cpu/arm1176/start.o
 .rel.u_boot_list.cmd.exit
                0x57e3ebd8       0x20 arch/arm/cpu/arm1176/start.o
 .rel.u_boot_list.cmd.ext2load
                0x57e3ebf8       0x20 arch/arm/cpu/arm1176/start.o
 .rel.u_boot_list.cmd.ext2ls
                0x57e3ec18       0x20 arch/arm/cpu/arm1176/start.o
 .rel.u_boot_list.cmd.fatls
                0x57e3ec38       0x20 arch/arm/cpu/arm1176/start.o
 .rel.u_boot_list.cmd.fatload
                0x57e3ec58       0x20 arch/arm/cpu/arm1176/start.o
 .rel.u_boot_list.cmd.fatinfo
                0x57e3ec78       0x20 arch/arm/cpu/arm1176/start.o
 .rel.u_boot_list.cmd.flinfo
                0x57e3ec98       0x20 arch/arm/cpu/arm1176/start.o
 .rel.u_boot_list.cmd.erase
                0x57e3ecb8       0x20 arch/arm/cpu/arm1176/start.o
 .rel.u_boot_list.cmd.protect
                0x57e3ecd8       0x20 arch/arm/cpu/arm1176/start.o
 .rel.u_boot_list.cmd.question_mark
                0x57e3ecf8       0x20 arch/arm/cpu/arm1176/start.o
 .rel.u_boot_list.cmd.help
                0x57e3ed18       0x20 arch/arm/cpu/arm1176/start.o
 .rel.u_boot_list.cmd.itest
                0x57e3ed38       0x20 arch/arm/cpu/arm1176/start.o
 .rel.u_boot_list.cmd.loads
                0x57e3ed58       0x20 arch/arm/cpu/arm1176/start.o
 .rel.u_boot_list.cmd.loadb
                0x57e3ed78       0x20 arch/arm/cpu/arm1176/start.o
 .rel.u_boot_list.cmd.loady
                0x57e3ed98       0x20 arch/arm/cpu/arm1176/start.o
 .rel.u_boot_list.cmd.mtest
                0x57e3edb8       0x20 arch/arm/cpu/arm1176/start.o
 .rel.u_boot_list.cmd.cp
                0x57e3edd8       0x20 arch/arm/cpu/arm1176/start.o
 .rel.u_boot_list.cmd.loop
                0x57e3edf8       0x20 arch/arm/cpu/arm1176/start.o
 .rel.u_boot_list.cmd.crc32
                0x57e3ee18       0x20 arch/arm/cpu/arm1176/start.o
 .rel.u_boot_list.cmd.cmp
                0x57e3ee38       0x20 arch/arm/cpu/arm1176/start.o
 .rel.u_boot_list.cmd.md
                0x57e3ee58       0x20 arch/arm/cpu/arm1176/start.o
 .rel.u_boot_list.cmd.mw
                0x57e3ee78       0x20 arch/arm/cpu/arm1176/start.o
 .rel.u_boot_list.cmd.mm
                0x57e3ee98       0x20 arch/arm/cpu/arm1176/start.o
 .rel.u_boot_list.cmd.base
                0x57e3eeb8       0x20 arch/arm/cpu/arm1176/start.o
 .rel.u_boot_list.cmd.nm
                0x57e3eed8       0x20 arch/arm/cpu/arm1176/start.o
 .rel.u_boot_list.cmd.sleep
                0x57e3eef8       0x20 arch/arm/cpu/arm1176/start.o
 .rel.u_boot_list.cmd.mmcinfo
                0x57e3ef18       0x20 arch/arm/cpu/arm1176/start.o
 .rel.u_boot_list.cmd.mmc
                0x57e3ef38       0x20 arch/arm/cpu/arm1176/start.o
 .rel.u_boot_list.cmd.nand
                0x57e3ef58       0x20 arch/arm/cpu/arm1176/start.o
 .rel.u_boot_list.cmd.nboot
                0x57e3ef78       0x20 arch/arm/cpu/arm1176/start.o
 .rel.u_boot_list.cmd.ping
                0x57e3ef98       0x20 arch/arm/cpu/arm1176/start.o
 .rel.u_boot_list.cmd.nfs
                0x57e3efb8       0x20 arch/arm/cpu/arm1176/start.o
 .rel.u_boot_list.cmd.bootp
                0x57e3efd8       0x20 arch/arm/cpu/arm1176/start.o
 .rel.u_boot_list.cmd.tftpboot
                0x57e3eff8       0x20 arch/arm/cpu/arm1176/start.o
 .rel.u_boot_list.cmd.printenv
                0x57e3f018       0x20 arch/arm/cpu/arm1176/start.o
 .rel.u_boot_list.cmd.editenv
                0x57e3f038       0x20 arch/arm/cpu/arm1176/start.o
 .rel.u_boot_list.cmd.env
                0x57e3f058       0x20 arch/arm/cpu/arm1176/start.o
 .rel.u_boot_list.cmd.saveenv
                0x57e3f078       0x20 arch/arm/cpu/arm1176/start.o
 .rel.u_boot_list.cmd.setenv
                0x57e3f098       0x20 arch/arm/cpu/arm1176/start.o
 .rel.u_boot_list.cmd.run
                0x57e3f0b8       0x20 arch/arm/cpu/arm1176/start.o
 .rel.u_boot_list.cmd.reginfo
                0x57e3f0d8       0x20 arch/arm/cpu/arm1176/start.o
 .rel.u_boot_list.cmd.source
                0x57e3f0f8       0x20 arch/arm/cpu/arm1176/start.o
 .rel.u_boot_list.cmd.test
                0x57e3f118       0x20 arch/arm/cpu/arm1176/start.o
 .rel.u_boot_list.cmd.false
                0x57e3f138       0x18 arch/arm/cpu/arm1176/start.o
 .rel.u_boot_list.cmd.true
                0x57e3f150       0x18 arch/arm/cpu/arm1176/start.o
 .rel.u_boot_list.cmd.usb
                0x57e3f168       0x20 arch/arm/cpu/arm1176/start.o
 .rel.u_boot_list.cmd.usbboot
                0x57e3f188       0x20 arch/arm/cpu/arm1176/start.o
 .rel.u_boot_list.cmd.version
                0x57e3f1a8       0x20 arch/arm/cpu/arm1176/start.o
 .rel.u_boot_list.cmd.imxtract
                0x57e3f1c8       0x20 arch/arm/cpu/arm1176/start.o
 .rel.u_boot_list.env_clbk.console
                0x57e3f1e8       0x10 arch/arm/cpu/arm1176/start.o
 .rel.u_boot_list.env_clbk.callbacks
                0x57e3f1f8       0x10 arch/arm/cpu/arm1176/start.o
 .rel.u_boot_list.env_clbk.flags
                0x57e3f208       0x10 arch/arm/cpu/arm1176/start.o
 .rel.u_boot_list.cmd.showvar
                0x57e3f218       0x20 arch/arm/cpu/arm1176/start.o
 .rel.u_boot_list.env_clbk.loadaddr
                0x57e3f238       0x10 arch/arm/cpu/arm1176/start.o
 .rel.u_boot_list.env_clbk.baudrate
                0x57e3f248       0x10 arch/arm/cpu/arm1176/start.o
 .rel.u_boot_list.env_clbk.bootfile
                0x57e3f258       0x10 arch/arm/cpu/arm1176/start.o
                0x57e3f268                __rel_dyn_end = .

.dynsym         0x57e3f268       0xf0
                0x57e3f268                __dynsym_start = .
 *(.dynsym)
 .dynsym        0x57e3f268       0xf0 arch/arm/cpu/arm1176/start.o
                0x57e3f358                _end = .

.bss            0x57e39540    0x43e20
                0x57e39540                __bss_start = .
 *(.bss)
 .bss           0x57e39540        0x0 arch/arm/cpu/arm1176/start.o
 .bss           0x57e39540        0x0 board/samsung/ok6410/libok6410.o
 .bss           0x57e39540        0x0 arch/arm/cpu/arm1176/libarm1176.o
 .bss           0x57e39540        0x0 arch/arm/cpu/arm1176/s3c64xx/libs3c64xx.o
 .bss           0x57e39540        0x8 arch/arm/lib/libarm.o
                0x57e39540                monitor_flash_len
 *fill*         0x57e39548       0x38 
 .bss           0x57e39580     0xf43c common/libcommon.o
                0x57e39580                images
                0x57e39730                mem_malloc_brk
                0x57e39734                mem_malloc_start
                0x57e39738                mem_malloc_end
                0x57e399b0                save_size
                0x57e399b4                save_addr
                0x57e3ae2c                console_buffer
                0x57e3af6c                stdio_devices
                0x57e3af80                usb_started
 .bss           0x57e489bc        0x0 disk/libdisk.o
 .bss           0x57e489bc        0x0 drivers/input/libinput.o
 .bss           0x57e489bc        0xc drivers/mmc/libmmc.o
                0x57e489c4                aligned_buffer
 .bss           0x57e489c8      0x110 drivers/mtd/libmtd.o
                0x57e489d0                flash_info
 .bss           0x57e48ad8      0x1e4 drivers/mtd/nand/libnand.o
                0x57e48ae0                nand_info
 .bss           0x57e48cbc        0x0 drivers/net/libnet.o
 .bss           0x57e48cbc        0x0 drivers/pcmcia/libpcmcia.o
 .bss           0x57e48cbc        0x0 drivers/rtc/librtc.o
 .bss           0x57e48cbc        0x8 drivers/serial/libserial.o
 *fill*         0x57e48cc4       0x3c 
 .bss           0x57e48d00     0x1500 drivers/usb/host/libusb_host.o
                0x57e48e50                ohci_dev
                0x57e48fe0                ptd
                0x57e48fe4                devgone
                0x57e48fe8                phcca
                0x57e49000                ghcca
                0x57e49100                gtd
 .bss           0x57e4a200       0x84 fs/ext4/libext4fs.o
                0x57e4a200                ext_fs
                0x57e4a248                ext4fs_symlinknest
                0x57e4a250                ext4fs_root
                0x57e4a254                ext4fs_indir1_block
                0x57e4a258                ext4fs_indir1_size
                0x57e4a25c                ext4fs_indir2_block
                0x57e4a260                ext4fs_indir2_size
                0x57e4a264                ext4fs_indir3_block
                0x57e4a268                ext4fs_indir3_size
                0x57e4a26c                ext4fs_file
                0x57e4a274                g_parent_inode
                0x57e4a280                part_offset
 *fill*         0x57e4a284       0x3c 
 .bss           0x57e4a2c0    0x30080 fs/fat/libfat.o
                0x57e4a340                get_contents_vfatname_block
                0x57e5a340                do_fat_read_at_block
                0x57e6a340                get_dentfromdir_block
 .bss           0x57e7a340       0x58 fs/libfs.o
 .bss           0x57e7a398       0x1e lib/libgeneric.o
                0x57e7a398                errno
                0x57e7a39c                ___strtok
 .bss           0x57e7a3b6        0x0 lib/zlib/libz.o
 *fill*         0x57e7a3b6        0x2 
 .bss           0x57e7a3b8     0x2fa8 net/libnet.o
                0x57e7a3b8                NetArpWaitPacketMAC
                0x57e7a3bc                NetArpWaitPacketIP
                0x57e7a3c4                NetArpWaitTxPacketSize
                0x57e7aa0c                NetArpWaitTimerStart
                0x57e7aa10                NetArpWaitTry
                0x57e7aa14                BootpID
                0x57e7aa18                BootpTry
                0x57e7aa1c                eth_current
                0x57e7aa34                net_state
                0x57e7aa4c                NetRestartWrap
                0x57e7aa5c                NetRxPacket
                0x57e7aa60                NetRxPacketLen
                0x57e7aa64                NetOurIP
                0x57e7aa68                NetOurEther
                0x57e7aa70                NetIPID
                0x57e7aa74                NetTxPacket
                0x57e7aa78                NetEtherNullAddr
                0x57e7aa7e                BootFile
                0x57e7ab04                NetOurGatewayIP
                0x57e7ab08                NetOurSubnetMask
                0x57e7ab0c                NetServerIP
                0x57e7c950                NetRxPackets
                0x57e7c960                NetBootFileXferSize
                0x57e7c964                NetServerEther
                0x57e7c96a                NetBootFileSize
                0x57e7c96c                NetOurRootPath
                0x57e7c9ac                NetOurHostName
                0x57e7c9cc                NetOurNISDomain
                0x57e7c9ec                NetOurDNSIP
                0x57e7d2a0                NetPingIP
 .bss           0x57e7d360        0x0 /home/ws/uboot/u-boot-2013.04-rc1/build/arch/arm/lib/eabi_compat.o
 .bss           0x57e7d360        0x0 /usr/local/bin/toolschain/4.9.1/bin/../lib/gcc/arm-linux-gnueabihf/4.9.1/libgcc.a(_udivsi3.o)
 .bss           0x57e7d360        0x0 /usr/local/bin/toolschain/4.9.1/bin/../lib/gcc/arm-linux-gnueabihf/4.9.1/libgcc.a(_divsi3.o)
 .bss           0x57e7d360        0x0 /usr/local/bin/toolschain/4.9.1/bin/../lib/gcc/arm-linux-gnueabihf/4.9.1/libgcc.a(_lshrdi3.o)
 .bss           0x57e7d360        0x0 /usr/local/bin/toolschain/4.9.1/bin/../lib/gcc/arm-linux-gnueabihf/4.9.1/libgcc.a(_ashrdi3.o)
 .bss           0x57e7d360        0x0 /usr/local/bin/toolschain/4.9.1/bin/../lib/gcc/arm-linux-gnueabihf/4.9.1/libgcc.a(_ashldi3.o)
 .bss           0x57e7d360        0x0 /usr/local/bin/toolschain/4.9.1/bin/../lib/gcc/arm-linux-gnueabihf/4.9.1/libgcc.a(_dvmd_lnx.o)
                0x57e7d360                . = ALIGN (0x4)
                0x57e7d360                __bss_end__ = .

.dynbss         0x57e3f358        0x0 load address 0x57e7d360
 .dynbss        0x00000000        0x0 arch/arm/cpu/arm1176/start.o

/DISCARD/
 *(.dynstr*)
 *(.dynamic*)
 *(.plt*)
 *(.interp*)
 *(.gnu*)
Address of section .text set to 0x57e00000
LOAD arch/arm/cpu/arm1176/start.o
START GROUP
LOAD api/libapi.o
LOAD arch/arm/cpu/arm1176/libarm1176.o
LOAD arch/arm/cpu/arm1176/s3c64xx/libs3c64xx.o
LOAD arch/arm/lib/libarm.o
LOAD board/samsung/common/libsamsung.o
LOAD common/libcommon.o
LOAD disk/libdisk.o
LOAD drivers/bios_emulator/libatibiosemu.o
LOAD drivers/block/libblock.o
LOAD drivers/dfu/libdfu.o
LOAD drivers/dma/libdma.o
LOAD drivers/fpga/libfpga.o
LOAD drivers/gpio/libgpio.o
LOAD drivers/hwmon/libhwmon.o
LOAD drivers/i2c/libi2c.o
LOAD drivers/input/libinput.o
LOAD drivers/misc/libmisc.o
LOAD drivers/mmc/libmmc.o
LOAD drivers/mtd/libmtd.o
LOAD drivers/mtd/nand/libnand.o
LOAD drivers/mtd/onenand/libonenand.o
LOAD drivers/mtd/spi/libspi_flash.o
LOAD drivers/mtd/ubi/libubi.o
LOAD drivers/net/libnet.o
LOAD drivers/net/phy/libphy.o
LOAD drivers/pci/libpci.o
LOAD drivers/pcmcia/libpcmcia.o
LOAD drivers/power/battery/libbattery.o
LOAD drivers/power/fuel_gauge/libfuel_gauge.o
LOAD drivers/power/libpower.o
LOAD drivers/power/pmic/libpmic.o
LOAD drivers/rtc/librtc.o
LOAD drivers/serial/libserial.o
LOAD drivers/sound/libsound.o
LOAD drivers/spi/libspi.o
LOAD drivers/twserial/libtws.o
LOAD drivers/usb/eth/libusb_eth.o
LOAD drivers/usb/gadget/libusb_gadget.o
LOAD drivers/usb/host/libusb_host.o
LOAD drivers/usb/musb-new/libusb_musb-new.o
LOAD drivers/usb/musb/libusb_musb.o
LOAD drivers/usb/phy/libusb_phy.o
LOAD drivers/usb/ulpi/libusb_ulpi.o
LOAD drivers/video/libvideo.o
LOAD drivers/watchdog/libwatchdog.o
LOAD fs/cbfs/libcbfs.o
LOAD fs/cramfs/libcramfs.o
LOAD fs/ext4/libext4fs.o
LOAD fs/fat/libfat.o
LOAD fs/fdos/libfdos.o
LOAD fs/jffs2/libjffs2.o
LOAD fs/libfs.o
LOAD fs/reiserfs/libreiserfs.o
LOAD fs/sandbox/libsandboxfs.o
LOAD fs/ubifs/libubifs.o
LOAD fs/yaffs2/libyaffs2.o
LOAD fs/zfs/libzfs.o
LOAD lib/libfdt/libfdt.o
LOAD lib/libgeneric.o
LOAD lib/lzma/liblzma.o
LOAD lib/lzo/liblzo.o
LOAD lib/zlib/libz.o
LOAD net/libnet.o
LOAD post/libpost.o
LOAD test/libtest.o
LOAD board/samsung/ok6410/libok6410.o
END GROUP
LOAD /home/ws/uboot/u-boot-2013.04-rc1/build/arch/arm/lib/eabi_compat.o
LOAD /usr/local/bin/toolschain/4.9.1/bin/../lib/gcc/arm-linux-gnueabihf/4.9.1/libgcc.a
OUTPUT(u-boot elf32-littlearm)

.ARM.attributes
                0x00000000       0x2b
 .ARM.attributes
                0x00000000       0x1c arch/arm/cpu/arm1176/start.o
 .ARM.attributes
                0x0000001c       0x28 board/samsung/ok6410/libok6410.o
 .ARM.attributes
                0x00000044       0x2a arch/arm/cpu/arm1176/libarm1176.o
 .ARM.attributes
                0x0000006e       0x28 arch/arm/cpu/arm1176/s3c64xx/libs3c64xx.o
 .ARM.attributes
                0x00000096       0x28 arch/arm/lib/libarm.o
 .ARM.attributes
                0x000000be       0x2a common/libcommon.o
 .ARM.attributes
                0x000000e8       0x2a disk/libdisk.o
 .ARM.attributes
                0x00000112       0x2a drivers/input/libinput.o
 .ARM.attributes
                0x0000013c       0x2a drivers/mmc/libmmc.o
 .ARM.attributes
                0x00000166       0x2a drivers/mtd/libmtd.o
 .ARM.attributes
                0x00000190       0x2a drivers/mtd/nand/libnand.o
 .ARM.attributes
                0x000001ba       0x2a drivers/net/libnet.o
 .ARM.attributes
                0x000001e4       0x2a drivers/pcmcia/libpcmcia.o
 .ARM.attributes
                0x0000020e       0x2a drivers/rtc/librtc.o
 .ARM.attributes
                0x00000238       0x2a drivers/serial/libserial.o
 .ARM.attributes
                0x00000262       0x2a drivers/usb/host/libusb_host.o
 .ARM.attributes
                0x0000028c       0x2a fs/ext4/libext4fs.o
 .ARM.attributes
                0x000002b6       0x2a fs/fat/libfat.o
 .ARM.attributes
                0x000002e0       0x2a fs/libfs.o
 .ARM.attributes
                0x0000030a       0x2a lib/libgeneric.o
 .ARM.attributes
                0x00000334       0x2a lib/zlib/libz.o
 .ARM.attributes
                0x0000035e       0x2a net/libnet.o
 .ARM.attributes
                0x00000388       0x2a /home/ws/uboot/u-boot-2013.04-rc1/build/arch/arm/lib/eabi_compat.o
 .ARM.attributes
                0x000003b2       0x21 /usr/local/bin/toolschain/4.9.1/bin/../lib/gcc/arm-linux-gnueabihf/4.9.1/libgcc.a(_udivsi3.o)
 .ARM.attributes
                0x000003d3       0x21 /usr/local/bin/toolschain/4.9.1/bin/../lib/gcc/arm-linux-gnueabihf/4.9.1/libgcc.a(_divsi3.o)
 .ARM.attributes
                0x000003f4       0x21 /usr/local/bin/toolschain/4.9.1/bin/../lib/gcc/arm-linux-gnueabihf/4.9.1/libgcc.a(_lshrdi3.o)
 .ARM.attributes
                0x00000415       0x21 /usr/local/bin/toolschain/4.9.1/bin/../lib/gcc/arm-linux-gnueabihf/4.9.1/libgcc.a(_ashrdi3.o)
 .ARM.attributes
                0x00000436       0x21 /usr/local/bin/toolschain/4.9.1/bin/../lib/gcc/arm-linux-gnueabihf/4.9.1/libgcc.a(_ashldi3.o)
 .ARM.attributes
                0x00000457       0x21 /usr/local/bin/toolschain/4.9.1/bin/../lib/gcc/arm-linux-gnueabihf/4.9.1/libgcc.a(_dvmd_lnx.o)

.comment        0x00000000       0x63
 .comment       0x00000000       0x63 board/samsung/ok6410/libok6410.o
                                 0x64 (size before relaxing)
 .comment       0x00000000       0x64 arch/arm/cpu/arm1176/libarm1176.o
 .comment       0x00000000      0x190 arch/arm/cpu/arm1176/s3c64xx/libs3c64xx.o
 .comment       0x00000000      0x258 arch/arm/lib/libarm.o
 .comment       0x00000000     0x1324 common/libcommon.o
 .comment       0x00000000       0xc8 disk/libdisk.o
 .comment       0x00000000       0x64 drivers/input/libinput.o
 .comment       0x00000000      0x12c drivers/mmc/libmmc.o
 .comment       0x00000000       0xc8 drivers/mtd/libmtd.o
 .comment       0x00000000      0x2bc drivers/mtd/nand/libnand.o
 .comment       0x00000000       0x64 drivers/net/libnet.o
 .comment       0x00000000       0xc8 drivers/pcmcia/libpcmcia.o
 .comment       0x00000000       0x64 drivers/rtc/librtc.o
 .comment       0x00000000       0xc8 drivers/serial/libserial.o
 .comment       0x00000000       0xc8 drivers/usb/host/libusb_host.o
 .comment       0x00000000      0x12c fs/ext4/libext4fs.o
 .comment       0x00000000       0xc8 fs/fat/libfat.o
 .comment       0x00000000       0x64 fs/libfs.o
 .comment       0x00000000      0x708 lib/libgeneric.o
 .comment       0x00000000       0x64 lib/zlib/libz.o
 .comment       0x00000000      0x2bc net/libnet.o
 .comment       0x00000000       0x64 /home/ws/uboot/u-boot-2013.04-rc1/build/arch/arm/lib/eabi_compat.o

.note.GNU-stack
                0x00000000        0x0
 .note.GNU-stack
                0x00000000        0x0 board/samsung/ok6410/libok6410.o
 .note.GNU-stack
                0x00000000        0x0 arch/arm/cpu/arm1176/libarm1176.o
 .note.GNU-stack
                0x00000000        0x0 arch/arm/cpu/arm1176/s3c64xx/libs3c64xx.o
 .note.GNU-stack
                0x00000000        0x0 arch/arm/lib/libarm.o
 .note.GNU-stack
                0x00000000        0x0 common/libcommon.o
 .note.GNU-stack
                0x00000000        0x0 disk/libdisk.o
 .note.GNU-stack
                0x00000000        0x0 drivers/input/libinput.o
 .note.GNU-stack
                0x00000000        0x0 drivers/mmc/libmmc.o
 .note.GNU-stack
                0x00000000        0x0 drivers/mtd/libmtd.o
 .note.GNU-stack
                0x00000000        0x0 drivers/mtd/nand/libnand.o
 .note.GNU-stack
                0x00000000        0x0 drivers/net/libnet.o
 .note.GNU-stack
                0x00000000        0x0 drivers/pcmcia/libpcmcia.o
 .note.GNU-stack
                0x00000000        0x0 drivers/rtc/librtc.o
 .note.GNU-stack
                0x00000000        0x0 drivers/serial/libserial.o
 .note.GNU-stack
                0x00000000        0x0 drivers/usb/host/libusb_host.o
 .note.GNU-stack
                0x00000000        0x0 fs/ext4/libext4fs.o
 .note.GNU-stack
                0x00000000        0x0 fs/fat/libfat.o
 .note.GNU-stack
                0x00000000        0x0 fs/libfs.o
 .note.GNU-stack
                0x00000000        0x0 lib/libgeneric.o
 .note.GNU-stack
                0x00000000        0x0 lib/zlib/libz.o
 .note.GNU-stack
                0x00000000        0x0 net/libnet.o
 .note.GNU-stack
                0x00000000        0x0 /home/ws/uboot/u-boot-2013.04-rc1/build/arch/arm/lib/eabi_compat.o
 .note.GNU-stack
                0x00000000        0x0 /usr/local/bin/toolschain/4.9.1/bin/../lib/gcc/arm-linux-gnueabihf/4.9.1/libgcc.a(_udivsi3.o)
 .note.GNU-stack
                0x00000000        0x0 /usr/local/bin/toolschain/4.9.1/bin/../lib/gcc/arm-linux-gnueabihf/4.9.1/libgcc.a(_divsi3.o)
 .note.GNU-stack
                0x00000000        0x0 /usr/local/bin/toolschain/4.9.1/bin/../lib/gcc/arm-linux-gnueabihf/4.9.1/libgcc.a(_lshrdi3.o)
 .note.GNU-stack
                0x00000000        0x0 /usr/local/bin/toolschain/4.9.1/bin/../lib/gcc/arm-linux-gnueabihf/4.9.1/libgcc.a(_ashrdi3.o)
 .note.GNU-stack
                0x00000000        0x0 /usr/local/bin/toolschain/4.9.1/bin/../lib/gcc/arm-linux-gnueabihf/4.9.1/libgcc.a(_ashldi3.o)
 .note.GNU-stack
                0x00000000        0x0 /usr/local/bin/toolschain/4.9.1/bin/../lib/gcc/arm-linux-gnueabihf/4.9.1/libgcc.a(_dvmd_lnx.o)

.debug_line     0x00000000    0x1334a
 .debug_line    0x00000000       0xb8 arch/arm/cpu/arm1176/start.o
 .debug_line    0x000000b8      0x26a board/samsung/ok6410/libok6410.o
 .debug_line    0x00000322       0xfa arch/arm/cpu/arm1176/libarm1176.o
 .debug_line    0x0000041c      0x5d2 arch/arm/cpu/arm1176/s3c64xx/libs3c64xx.o
 .debug_line    0x000009ee      0xbe2 arch/arm/lib/libarm.o
 .debug_line    0x000015d0     0x7a28 common/libcommon.o
 .debug_line    0x00008ff8      0x5b3 disk/libdisk.o
 .debug_line    0x000095ab      0x2c5 drivers/input/libinput.o
 .debug_line    0x00009870      0xcec drivers/mmc/libmmc.o
 .debug_line    0x0000a55c      0x967 drivers/mtd/libmtd.o
 .debug_line    0x0000aec3     0x1f89 drivers/mtd/nand/libnand.o
 .debug_line    0x0000ce4c      0x2de drivers/net/libnet.o
 .debug_line    0x0000d12a      0x198 drivers/pcmcia/libpcmcia.o
 .debug_line    0x0000d2c2       0xcc drivers/rtc/librtc.o
 .debug_line    0x0000d38e      0x4a8 drivers/serial/libserial.o
 .debug_line    0x0000d836      0x771 drivers/usb/host/libusb_host.o
 .debug_line    0x0000dfa7      0x8f7 fs/ext4/libext4fs.o
 .debug_line    0x0000e89e      0x70e fs/fat/libfat.o
 .debug_line    0x0000efac      0x239 fs/libfs.o
 .debug_line    0x0000f1e5     0x1cdd lib/libgeneric.o
 .debug_line    0x00010ec2      0x9f1 lib/zlib/libz.o
 .debug_line    0x000118b3     0x1999 net/libnet.o
 .debug_line    0x0001324c       0xfe /home/ws/uboot/u-boot-2013.04-rc1/build/arch/arm/lib/eabi_compat.o

.debug_info     0x00000000    0x6b72f
 .debug_info    0x00000000       0x67 arch/arm/cpu/arm1176/start.o
 .debug_info    0x00000067      0x7f6 board/samsung/ok6410/libok6410.o
 .debug_info    0x0000085d      0x2f1 arch/arm/cpu/arm1176/libarm1176.o
 .debug_info    0x00000b4e     0x1229 arch/arm/cpu/arm1176/s3c64xx/libs3c64xx.o
 .debug_info    0x00001d77     0x3cbc arch/arm/lib/libarm.o
 .debug_info    0x00005a33    0x2de06 common/libcommon.o
 .debug_info    0x00033839     0x1e95 disk/libdisk.o
 .debug_info    0x000356ce     0x10df drivers/input/libinput.o
 .debug_info    0x000367ad     0x4b3a drivers/mmc/libmmc.o
 .debug_info    0x0003b2e7     0x3a14 drivers/mtd/libmtd.o
 .debug_info    0x0003ecfb     0xd8bc drivers/mtd/nand/libnand.o
 .debug_info    0x0004c5b7     0x1588 drivers/net/libnet.o
 .debug_info    0x0004db3f      0x502 drivers/pcmcia/libpcmcia.o
 .debug_info    0x0004e041      0x281 drivers/rtc/librtc.o
 .debug_info    0x0004e2c2     0x1527 drivers/serial/libserial.o
 .debug_info    0x0004f7e9     0x2f82 drivers/usb/host/libusb_host.o
 .debug_info    0x0005276b     0x3b48 fs/ext4/libext4fs.o
 .debug_info    0x000562b3     0x29e7 fs/fat/libfat.o
 .debug_info    0x00058c9a      0xf99 fs/libfs.o
 .debug_info    0x00059c33     0x6821 lib/libgeneric.o
 .debug_info    0x00060454     0x1563 lib/zlib/libz.o
 .debug_info    0x000619b7     0x9a6c net/libnet.o
 .debug_info    0x0006b423      0x30c /home/ws/uboot/u-boot-2013.04-rc1/build/arch/arm/lib/eabi_compat.o

.debug_abbrev   0x00000000    0x1428f
 .debug_abbrev  0x00000000       0x14 arch/arm/cpu/arm1176/start.o
 .debug_abbrev  0x00000014      0x229 board/samsung/ok6410/libok6410.o
 .debug_abbrev  0x0000023d      0x142 arch/arm/cpu/arm1176/libarm1176.o
 .debug_abbrev  0x0000037f      0x66a arch/arm/cpu/arm1176/s3c64xx/libs3c64xx.o
 .debug_abbrev  0x000009e9      0xfb4 arch/arm/lib/libarm.o
 .debug_abbrev  0x0000199d     0x89a9 common/libcommon.o
 .debug_abbrev  0x0000a346      0x6ef disk/libdisk.o
 .debug_abbrev  0x0000aa35      0x3c0 drivers/input/libinput.o
 .debug_abbrev  0x0000adf5      0xcfa drivers/mmc/libmmc.o
 .debug_abbrev  0x0000baef      0x77d drivers/mtd/libmtd.o
 .debug_abbrev  0x0000c26c     0x18c1 drivers/mtd/nand/libnand.o
 .debug_abbrev  0x0000db2d      0x459 drivers/net/libnet.o
 .debug_abbrev  0x0000df86      0x1aa drivers/pcmcia/libpcmcia.o
 .debug_abbrev  0x0000e130       0xd5 drivers/rtc/librtc.o
 .debug_abbrev  0x0000e205      0x63b drivers/serial/libserial.o
 .debug_abbrev  0x0000e840      0x5ad drivers/usb/host/libusb_host.o
 .debug_abbrev  0x0000eded      0x8b6 fs/ext4/libext4fs.o
 .debug_abbrev  0x0000f6a3      0x74e fs/fat/libfat.o
 .debug_abbrev  0x0000fdf1      0x328 fs/libfs.o
 .debug_abbrev  0x00010119     0x1f6b lib/libgeneric.o
 .debug_abbrev  0x00012084      0x41b lib/zlib/libz.o
 .debug_abbrev  0x0001249f     0x1c9e net/libnet.o
 .debug_abbrev  0x0001413d      0x152 /home/ws/uboot/u-boot-2013.04-rc1/build/arch/arm/lib/eabi_compat.o

.debug_aranges  0x00000000      0xf00
 .debug_aranges
                0x00000000       0x20 arch/arm/cpu/arm1176/start.o
 .debug_aranges
                0x00000020       0x40 board/samsung/ok6410/libok6410.o
 .debug_aranges
                0x00000060       0x20 arch/arm/cpu/arm1176/libarm1176.o
 .debug_aranges
                0x00000080       0xc0 arch/arm/cpu/arm1176/s3c64xx/libs3c64xx.o
 .debug_aranges
                0x00000140       0xe0 arch/arm/lib/libarm.o
 .debug_aranges
                0x00000220      0x610 common/libcommon.o
 .debug_aranges
                0x00000830       0x40 disk/libdisk.o
 .debug_aranges
                0x00000870       0x20 drivers/input/libinput.o
 .debug_aranges
                0x00000890       0x60 drivers/mmc/libmmc.o
 .debug_aranges
                0x000008f0       0x40 drivers/mtd/libmtd.o
 .debug_aranges
                0x00000930       0xd8 drivers/mtd/nand/libnand.o
 .debug_aranges
                0x00000a08       0x20 drivers/net/libnet.o
 .debug_aranges
                0x00000a28       0x30 drivers/pcmcia/libpcmcia.o
 .debug_aranges
                0x00000a58       0x18 drivers/rtc/librtc.o
 .debug_aranges
                0x00000a70       0x40 drivers/serial/libserial.o
 .debug_aranges
                0x00000ab0       0x40 drivers/usb/host/libusb_host.o
 .debug_aranges
                0x00000af0       0x60 fs/ext4/libext4fs.o
 .debug_aranges
                0x00000b50       0x40 fs/fat/libfat.o
 .debug_aranges
                0x00000b90       0x20 fs/libfs.o
 .debug_aranges
                0x00000bb0      0x230 lib/libgeneric.o
 .debug_aranges
                0x00000de0       0x20 lib/zlib/libz.o
 .debug_aranges
                0x00000e00       0xe0 net/libnet.o
 .debug_aranges
                0x00000ee0       0x20 /home/ws/uboot/u-boot-2013.04-rc1/build/arch/arm/lib/eabi_compat.o

.debug_frame    0x00000000     0x66e0
 .debug_frame   0x00000000       0x80 board/samsung/ok6410/libok6410.o
 .debug_frame   0x00000080       0x28 arch/arm/cpu/arm1176/libarm1176.o
 .debug_frame   0x000000a8      0x1ac arch/arm/cpu/arm1176/s3c64xx/libs3c64xx.o
 .debug_frame   0x00000254      0x484 arch/arm/lib/libarm.o
 .debug_frame   0x000006d8     0x2800 common/libcommon.o
 .debug_frame   0x00002ed8      0x200 disk/libdisk.o
 .debug_frame   0x000030d8       0xd0 drivers/input/libinput.o
 .debug_frame   0x000031a8      0x394 drivers/mmc/libmmc.o
 .debug_frame   0x0000353c      0x31c drivers/mtd/libmtd.o
 .debug_frame   0x00003858      0xbe8 drivers/mtd/nand/libnand.o
 .debug_frame   0x00004440      0x138 drivers/net/libnet.o
 .debug_frame   0x00004578      0x22c drivers/serial/libserial.o
 .debug_frame   0x000047a4      0x204 drivers/usb/host/libusb_host.o
 .debug_frame   0x000049a8      0x25c fs/ext4/libext4fs.o
 .debug_frame   0x00004c04      0x2f4 fs/fat/libfat.o
 .debug_frame   0x00004ef8      0x134 fs/libfs.o
 .debug_frame   0x0000502c      0xaac lib/libgeneric.o
 .debug_frame   0x00005ad8      0x16c lib/zlib/libz.o
 .debug_frame   0x00005c44      0xa14 net/libnet.o
 .debug_frame   0x00006658       0x48 /home/ws/uboot/u-boot-2013.04-rc1/build/arch/arm/lib/eabi_compat.o
 .debug_frame   0x000066a0       0x20 /usr/local/bin/toolschain/4.9.1/bin/../lib/gcc/arm-linux-gnueabihf/4.9.1/libgcc.a(_udivsi3.o)
 .debug_frame   0x000066c0       0x20 /usr/local/bin/toolschain/4.9.1/bin/../lib/gcc/arm-linux-gnueabihf/4.9.1/libgcc.a(_divsi3.o)

.debug_str      0x00000000     0xb413
 .debug_str     0x00000000      0x512 board/samsung/ok6410/libok6410.o
                                0x61b (size before relaxing)
 .debug_str     0x00000512       0x8f arch/arm/cpu/arm1176/libarm1176.o
                                0x377 (size before relaxing)
 .debug_str     0x000005a1      0x1af arch/arm/cpu/arm1176/s3c64xx/libs3c64xx.o
                                0xf7a (size before relaxing)
 .debug_str     0x00000750     0x14bf arch/arm/lib/libarm.o
                               0x39e3 (size before relaxing)
 .debug_str     0x00001c0f     0x47f1 common/libcommon.o
                              0x1961f (size before relaxing)
 .debug_str     0x00006400      0x25b disk/libdisk.o
                                0xc80 (size before relaxing)
 .debug_str     0x0000665b      0x326 drivers/input/libinput.o
                                0x70b (size before relaxing)
 .debug_str     0x00006981      0x42d drivers/mmc/libmmc.o
                               0x15d8 (size before relaxing)
 .debug_str     0x00006dae      0x711 drivers/mtd/libmtd.o
                               0x115d (size before relaxing)
 .debug_str     0x000074bf      0xd8a drivers/mtd/nand/libnand.o
                               0x4cdb (size before relaxing)
 .debug_str     0x00008249      0x159 drivers/net/libnet.o
                                0x4f8 (size before relaxing)
 .debug_str     0x000083a2       0x4e drivers/pcmcia/libpcmcia.o
                                0x64f (size before relaxing)
 .debug_str     0x000083f0       0x35 drivers/rtc/librtc.o
                                0x31d (size before relaxing)
 .debug_str     0x00008425      0x270 drivers/serial/libserial.o
                                0xca5 (size before relaxing)
 .debug_str     0x00008695      0x5e3 drivers/usb/host/libusb_host.o
                               0x11e8 (size before relaxing)
 .debug_str     0x00008c78      0x8d4 fs/ext4/libext4fs.o
                               0x1e9e (size before relaxing)
 .debug_str     0x0000954c      0x581 fs/fat/libfat.o
                                0xe66 (size before relaxing)
 .debug_str     0x00009acd       0xb2 fs/libfs.o
                                0x75a (size before relaxing)
 .debug_str     0x00009b7f      0x641 lib/libgeneric.o
                               0x39cb (size before relaxing)
 .debug_str     0x0000a1c0      0x29d lib/zlib/libz.o
                                0x7df (size before relaxing)
 .debug_str     0x0000a45d      0xf6d net/libnet.o
                               0x58e1 (size before relaxing)
 .debug_str     0x0000b3ca       0x49 /home/ws/uboot/u-boot-2013.04-rc1/build/arch/arm/lib/eabi_compat.o
                                0x367 (size before relaxing)

.debug_loc      0x00000000    0x372ba
 .debug_loc     0x00000000       0x42 board/samsung/ok6410/libok6410.o
 .debug_loc     0x00000042      0x1ee arch/arm/cpu/arm1176/s3c64xx/libs3c64xx.o
 .debug_loc     0x00000230      0x934 arch/arm/lib/libarm.o
 .debug_loc     0x00000b64    0x14bd4 common/libcommon.o
 .debug_loc     0x00015738      0xf26 disk/libdisk.o
 .debug_loc     0x0001665e      0xb47 drivers/input/libinput.o
 .debug_loc     0x000171a5     0x27af drivers/mmc/libmmc.o
 .debug_loc     0x00019954     0x2249 drivers/mtd/libmtd.o
 .debug_loc     0x0001bb9d     0x7c9e drivers/mtd/nand/libnand.o
 .debug_loc     0x0002383b      0xa04 drivers/net/libnet.o
 .debug_loc     0x0002423f      0x41b drivers/serial/libserial.o
 .debug_loc     0x0002465a     0x2368 drivers/usb/host/libusb_host.o
 .debug_loc     0x000269c2     0x1bfd fs/ext4/libext4fs.o
 .debug_loc     0x000285bf     0x2350 fs/fat/libfat.o
 .debug_loc     0x0002a90f      0x5dc fs/libfs.o
 .debug_loc     0x0002aeeb     0x5491 lib/libgeneric.o
 .debug_loc     0x0003037c     0x2acf lib/zlib/libz.o
 .debug_loc     0x00032e4b     0x4443 net/libnet.o
 .debug_loc     0x0003728e       0x2c /home/ws/uboot/u-boot-2013.04-rc1/build/arch/arm/lib/eabi_compat.o

.debug_ranges   0x00000000     0x2aa8
 .debug_ranges  0x00000000       0x18 board/samsung/ok6410/libok6410.o
 .debug_ranges  0x00000018       0x18 arch/arm/cpu/arm1176/s3c64xx/libs3c64xx.o
 .debug_ranges  0x00000030       0x60 arch/arm/lib/libarm.o
 .debug_ranges  0x00000090      0xca0 common/libcommon.o
 .debug_ranges  0x00000d30       0xa0 disk/libdisk.o
 .debug_ranges  0x00000dd0      0x170 drivers/input/libinput.o
 .debug_ranges  0x00000f40      0x298 drivers/mmc/libmmc.o
 .debug_ranges  0x000011d8      0x280 drivers/mtd/libmtd.o
 .debug_ranges  0x00001458      0x528 drivers/mtd/nand/libnand.o
 .debug_ranges  0x00001980      0x218 drivers/net/libnet.o
 .debug_ranges  0x00001b98       0x18 drivers/serial/libserial.o
 .debug_ranges  0x00001bb0      0x230 drivers/usb/host/libusb_host.o
 .debug_ranges  0x00001de0      0x1c8 fs/ext4/libext4fs.o
 .debug_ranges  0x00001fa8      0x118 fs/fat/libfat.o
 .debug_ranges  0x000020c0      0x358 lib/libgeneric.o
 .debug_ranges  0x00002418       0x48 lib/zlib/libz.o
 .debug_ranges  0x00002460      0x648 net/libnet.o
